(dp0
S'failed'
p1
(lp2
sS'source_names'
p3
(lp4
S'.'
p5
asS'ids'
p6
(dp7
I1
(S'/home/yak/git/seed-aquire/tests/test_filters.py'
p8
S'test_filters'
p9
S'CalibrationFilterTest.test_avg'
p10
tp11
sI2
(S'/home/yak/git/seed-aquire/tests/test_filters.py'
p12
g9
S'CalibrationFilterTest.test_chess_speed'
p13
tp14
sI3
(S'/home/yak/git/seed-aquire/tests/test_filters.py'
p15
g9
S'CalibrationFilterTest.test_empty_filter'
p16
tp17
sI4
(S'/home/yak/git/seed-aquire/tests/test_filters.py'
p18
g9
S'CalibrationFilterTest.test_gray'
p19
tp20
sI5
(S'/home/yak/git/seed-aquire/tests/test_filters.py'
p21
g9
S'RedDotCalibrationTest.test_filter'
p22
tp23
sI6
(S'/home/yak/git/seed-aquire/tests/test_filters.py'
p24
g9
S'RedDotCalibrationTest.test_red_filter'
p25
tp26
sI7
(S'/home/yak/git/seed-aquire/tests/test_filters.py'
p27
g9
S'SeparateObjectFilterTest.test_bg_avg'
p28
tp29
sI8
(S'/home/yak/git/seed-aquire/tests/test_filters.py'
p30
g9
S'SeparateObjectFilterTest.test_elipse'
p31
tp32
sI9
(S'/home/yak/git/seed-aquire/tests/test_filters.py'
p33
g9
S'SeparateObjectFilterTest.test_measure'
p34
tp35
sI10
(S'/home/yak/git/seed-aquire/tests/test_filters.py'
p36
g9
S'SeparateObjectFilterTest.test_no_object'
p37
tp38
sI11
(S'/home/yak/git/seed-aquire/tests/test_filters.py'
p39
g9
S'SeparateObjectFilterTest.test_no_red_dot'
p40
tp41
sI12
(S'/home/yak/git/seed-aquire/tests/test_filters.py'
p42
g9
S'SeparateObjectFilterTest.test_remove_reddot'
p43
tp44
sI13
(S'/home/yak/git/seed-aquire/tests/test_filters.py'
p45
g9
S'SeparateObjectFilterTest.test_speed'
p46
tp47
sI14
(S'/home/yak/git/seed-aquire/tests/test_filters.py'
p48
g9
S'SppedTest.full_fitlers_test'
p49
tp50
ss.