(dp0
S'failed'
p1
(lp2
S'15'
p3
asS'source_names'
p4
(lp5
S'.'
p6
asS'ids'
p7
(dp8
I1
(S'/home/yak/git/seed-aquire/tests/test_filters.py'
p9
S'test_filters'
p10
S'CalibrationFilterTest.test_avg'
p11
tp12
sI2
(S'/home/yak/git/seed-aquire/tests/test_filters.py'
p13
g10
S'CalibrationFilterTest.test_chess_speed'
p14
tp15
sI3
(S'/home/yak/git/seed-aquire/tests/test_filters.py'
p16
g10
S'CalibrationFilterTest.test_empty_filter'
p17
tp18
sI4
(S'/home/yak/git/seed-aquire/tests/test_filters.py'
p19
g10
S'CalibrationFilterTest.test_gray'
p20
tp21
sI5
(S'/home/yak/git/seed-aquire/tests/test_filters.py'
p22
g10
S'RedDotCalibrationTest.test_filter'
p23
tp24
sI6
(S'/home/yak/git/seed-aquire/tests/test_filters.py'
p25
g10
S'RedDotCalibrationTest.test_red_filter'
p26
tp27
sI7
(S'/home/yak/git/seed-aquire/tests/test_filters.py'
p28
g10
S'SeparateObjectFilterTest.test_bg_avg'
p29
tp30
sI8
(S'/home/yak/git/seed-aquire/tests/test_filters.py'
p31
g10
S'SeparateObjectFilterTest.test_elipse'
p32
tp33
sI9
(S'/home/yak/git/seed-aquire/tests/test_filters.py'
p34
g10
S'SeparateObjectFilterTest.test_measure'
p35
tp36
sI10
(S'/home/yak/git/seed-aquire/tests/test_filters.py'
p37
g10
S'SeparateObjectFilterTest.test_no_object'
p38
tp39
sI11
(S'/home/yak/git/seed-aquire/tests/test_filters.py'
p40
g10
S'SeparateObjectFilterTest.test_no_red_dot'
p41
tp42
sI12
(S'/home/yak/git/seed-aquire/tests/test_filters.py'
p43
g10
S'SeparateObjectFilterTest.test_remove_reddot'
p44
tp45
sI13
(S'/home/yak/git/seed-aquire/tests/test_filters.py'
p46
g10
S'SeparateObjectFilterTest.test_speed'
p47
tp48
sI14
(S'/home/yak/git/seed-aquire/tests/test_filters.py'
p49
g10
S'SppedTest.full_fitlers_test'
p50
tp51
sI15
(S'/home/yak/git/seed-aquire/tests/test_at_app.py'
p52
S'tests.test_at_app'
p53
S'TestQtApp.test_parse_last_measure'
p54
tp55
sI16
(S'/home/yak/git/seed-aquire/tests/test_at_app.py'
p56
g53
S'TestQtApp.test_parse_last_measure_empty'
p57
tp58
sI17
(S'/home/yak/git/seed-aquire/tests/test_filters.py'
p59
S'tests.test_filters'
p60
S'CalibrationFilterTest.test_avg'
p61
tp62
sI18
(S'/home/yak/git/seed-aquire/tests/test_filters.py'
p63
g60
S'CalibrationFilterTest.test_chess_speed'
p64
tp65
sI19
(S'/home/yak/git/seed-aquire/tests/test_filters.py'
p66
g60
S'CalibrationFilterTest.test_empty_filter'
p67
tp68
sI20
(S'/home/yak/git/seed-aquire/tests/test_filters.py'
p69
g60
S'CalibrationFilterTest.test_gray'
p70
tp71
sI21
(S'/home/yak/git/seed-aquire/tests/test_filters.py'
p72
g60
S'RedDotCalibrationTest.test_filter'
p73
tp74
sI22
(S'/home/yak/git/seed-aquire/tests/test_filters.py'
p75
g60
S'RedDotCalibrationTest.test_red_filter'
p76
tp77
sI23
(S'/home/yak/git/seed-aquire/tests/test_filters.py'
p78
g60
S'SeparateObjectFilterTest.test_elipse'
p79
tp80
sI24
(S'/home/yak/git/seed-aquire/tests/test_filters.py'
p81
g60
S'SeparateObjectFilterTest.test_measure'
p82
tp83
sI25
(S'/home/yak/git/seed-aquire/tests/test_filters.py'
p84
g60
S'SeparateObjectFilterTest.test_no_object'
p85
tp86
sI26
(S'/home/yak/git/seed-aquire/tests/test_filters.py'
p87
g60
S'SeparateObjectFilterTest.test_no_red_dot'
p88
tp89
sI27
(S'/home/yak/git/seed-aquire/tests/test_filters.py'
p90
g60
S'SeparateObjectFilterTest.test_probe_mask'
p91
tp92
sI28
(S'/home/yak/git/seed-aquire/tests/test_filters.py'
p93
g60
S'SeparateObjectFilterTest.test_remove_reddot'
p94
tp95
sI29
(S'/home/yak/git/seed-aquire/tests/test_filters.py'
p96
g60
S'SeparateObjectFilterTest.test_speed'
p97
tp98
sI30
(S'/home/yak/git/seed-aquire/tests/test_filters.py'
p99
g60
S'SppedTest.full_fitlers_test'
p100
tp101
ss.